target datalayout = "e-m:e-p270:32:32-p271:32:32-p272:64:64-i64:64-i128:128-f80:128-n8:16:32:64-S128"
target triple = "x86_64-pc-linux-gnu"

%struct.lxb_html_token_t = type { ptr, ptr, i64, i64, ptr, ptr, ptr, ptr, ptr, i64, i64, i32 }
%struct.lxb_html_token_attr = type { ptr, ptr, ptr, ptr, ptr, ptr, i64, ptr, ptr, i32 }
%struct.lexbor_str_t = type { ptr, i64 }
%struct.lxb_dom_document_type = type { %struct.lxb_dom_node, i64, %struct.lexbor_str_t, %struct.lexbor_str_t }
%struct.lxb_dom_node = type { %struct.lxb_dom_event_target, i64, i64, i64, ptr, ptr, ptr, ptr, ptr, ptr, ptr, i32, i64 }
%struct.lxb_dom_event_target = type { ptr }
%struct.lxb_dom_document = type { %struct.lxb_dom_node, i32, i32, ptr, ptr, ptr, ptr, ptr, ptr, ptr, ptr, ptr, ptr, ptr, ptr, ptr, ptr, ptr, ptr, ptr, i8, i8, i8 }
%struct.lxb_dom_attr_data_t = type { %struct.lexbor_hash_entry, i64, i64, i8 }
%struct.lexbor_hash_entry = type { %union.anon, i64, ptr }
%union.anon = type { ptr, [16 x i8] }

; Function Attrs: nounwind uwtable
define hidden i32 @lxb_html_token_doctype_parse(ptr noundef %0, ptr noundef %1) #0 {
  %3 = alloca i32, align 4
  %4 = alloca ptr, align 8
  %5 = alloca ptr, align 8
  %6 = alloca ptr, align 8
  %7 = alloca ptr, align 8
  store ptr %0, ptr %4, align 8
  store ptr %1, ptr %5, align 8
  %8 = load ptr, ptr %5, align 8
  %9 = getelementptr inbounds %struct.lxb_dom_document_type, ptr %8, i32 0, i32 0
  %10 = getelementptr inbounds %struct.lxb_dom_node, ptr %9, i32 0, i32 4
  %11 = load ptr, ptr %10, align 8
  %12 = getelementptr inbounds %struct.lxb_dom_document, ptr %11, i32 0, i32 12
  %13 = load ptr, ptr %12, align 8
  store ptr %13, ptr %7, align 8
  %14 = load ptr, ptr %4, align 8
  %15 = getelementptr inbounds %struct.lxb_html_token_t, ptr %14, i32 0, i32 6
  %16 = load ptr, ptr %15, align 8
  %17 = icmp eq ptr %16, null
  br i1 %17, label %18, label %19

18:                                               ; preds = %2
  br label %145

19:                                               ; preds = %2
  %20 = load ptr, ptr %4, align 8
  %21 = getelementptr inbounds %struct.lxb_html_token_t, ptr %20, i32 0, i32 6
  %22 = load ptr, ptr %21, align 8
  store ptr %22, ptr %6, align 8
  %23 = load ptr, ptr %6, align 8
  %24 = getelementptr inbounds %struct.lxb_html_token_attr, ptr %23, i32 0, i32 4
  %25 = load ptr, ptr %24, align 8
  %26 = getelementptr inbounds %struct.lxb_dom_attr_data_t, ptr %25, i32 0, i32 1
  %27 = load i64, ptr %26, align 8
  %28 = load ptr, ptr %5, align 8
  %29 = getelementptr inbounds %struct.lxb_dom_document_type, ptr %28, i32 0, i32 1
  store i64 %27, ptr %29, align 8
  %30 = load ptr, ptr %6, align 8
  %31 = getelementptr inbounds %struct.lxb_html_token_attr, ptr %30, i32 0, i32 7
  %32 = load ptr, ptr %31, align 8
  store ptr %32, ptr %6, align 8
  %33 = load ptr, ptr %6, align 8
  %34 = icmp eq ptr %33, null
  br i1 %34, label %35, label %36

35:                                               ; preds = %19
  br label %148

36:                                               ; preds = %19
  %37 = load ptr, ptr %6, align 8
  %38 = getelementptr inbounds %struct.lxb_html_token_attr, ptr %37, i32 0, i32 4
  %39 = load ptr, ptr %38, align 8
  %40 = getelementptr inbounds %struct.lxb_dom_attr_data_t, ptr %39, i32 0, i32 1
  %41 = load i64, ptr %40, align 8
  %42 = icmp eq i64 %41, 23
  br i1 %42, label %43, label %74

43:                                               ; preds = %36
  %44 = load ptr, ptr %5, align 8
  %45 = getelementptr inbounds %struct.lxb_dom_document_type, ptr %44, i32 0, i32 2
  %46 = load ptr, ptr %7, align 8
  %47 = load ptr, ptr %6, align 8
  %48 = getelementptr inbounds %struct.lxb_html_token_attr, ptr %47, i32 0, i32 6
  %49 = load i64, ptr %48, align 8
  %50 = call ptr @lexbor_str_init(ptr noundef %45, ptr noundef %46, i64 noundef %49)
  %51 = load ptr, ptr %5, align 8
  %52 = getelementptr inbounds %struct.lxb_dom_document_type, ptr %51, i32 0, i32 2
  %53 = getelementptr inbounds %struct.lexbor_str_t, ptr %52, i32 0, i32 0
  %54 = load ptr, ptr %53, align 8
  %55 = icmp eq ptr %54, null
  br i1 %55, label %56, label %57

56:                                               ; preds = %43
  store i32 2, ptr %3, align 4
  br label %172

57:                                               ; preds = %43
  %58 = load ptr, ptr %6, align 8
  %59 = getelementptr inbounds %struct.lxb_html_token_attr, ptr %58, i32 0, i32 2
  %60 = load ptr, ptr %59, align 8
  %61 = icmp eq ptr %60, null
  br i1 %61, label %62, label %63

62:                                               ; preds = %57
  store i32 0, ptr %3, align 4
  br label %172

63:                                               ; preds = %57
  %64 = load ptr, ptr %5, align 8
  %65 = getelementptr inbounds %struct.lxb_dom_document_type, ptr %64, i32 0, i32 2
  %66 = load ptr, ptr %7, align 8
  %67 = load ptr, ptr %6, align 8
  %68 = getelementptr inbounds %struct.lxb_html_token_attr, ptr %67, i32 0, i32 5
  %69 = load ptr, ptr %68, align 8
  %70 = load ptr, ptr %6, align 8
  %71 = getelementptr inbounds %struct.lxb_html_token_attr, ptr %70, i32 0, i32 6
  %72 = load i64, ptr %71, align 8
  %73 = call ptr @lexbor_str_append(ptr noundef %65, ptr noundef %66, ptr noundef %69, i64 noundef %72)
  br label %113

74:                                               ; preds = %36
  %75 = load ptr, ptr %6, align 8
  %76 = getelementptr inbounds %struct.lxb_html_token_attr, ptr %75, i32 0, i32 4
  %77 = load ptr, ptr %76, align 8
  %78 = getelementptr inbounds %struct.lxb_dom_attr_data_t, ptr %77, i32 0, i32 1
  %79 = load i64, ptr %78, align 8
  %80 = icmp eq i64 %79, 32
  br i1 %80, label %81, label %112

81:                                               ; preds = %74
  %82 = load ptr, ptr %5, align 8
  %83 = getelementptr inbounds %struct.lxb_dom_document_type, ptr %82, i32 0, i32 3
  %84 = load ptr, ptr %7, align 8
  %85 = load ptr, ptr %6, align 8
  %86 = getelementptr inbounds %struct.lxb_html_token_attr, ptr %85, i32 0, i32 6
  %87 = load i64, ptr %86, align 8
  %88 = call ptr @lexbor_str_init(ptr noundef %83, ptr noundef %84, i64 noundef %87)
  %89 = load ptr, ptr %5, align 8
  %90 = getelementptr inbounds %struct.lxb_dom_document_type, ptr %89, i32 0, i32 3
  %91 = getelementptr inbounds %struct.lexbor_str_t, ptr %90, i32 0, i32 0
  %92 = load ptr, ptr %91, align 8
  %93 = icmp eq ptr %92, null
  br i1 %93, label %94, label %95

94:                                               ; preds = %81
  store i32 2, ptr %3, align 4
  br label %172

95:                                               ; preds = %81
  %96 = load ptr, ptr %6, align 8
  %97 = getelementptr inbounds %struct.lxb_html_token_attr, ptr %96, i32 0, i32 2
  %98 = load ptr, ptr %97, align 8
  %99 = icmp eq ptr %98, null
  br i1 %99, label %100, label %101

100:                                              ; preds = %95
  store i32 0, ptr %3, align 4
  br label %172

101:                                              ; preds = %95
  %102 = load ptr, ptr %5, align 8
  %103 = getelementptr inbounds %struct.lxb_dom_document_type, ptr %102, i32 0, i32 3
  %104 = load ptr, ptr %7, align 8
  %105 = load ptr, ptr %6, align 8
  %106 = getelementptr inbounds %struct.lxb_html_token_attr, ptr %105, i32 0, i32 5
  %107 = load ptr, ptr %106, align 8
  %108 = load ptr, ptr %6, align 8
  %109 = getelementptr inbounds %struct.lxb_html_token_attr, ptr %108, i32 0, i32 6
  %110 = load i64, ptr %109, align 8
  %111 = call ptr @lexbor_str_append(ptr noundef %103, ptr noundef %104, ptr noundef %107, i64 noundef %110)
  store i32 0, ptr %3, align 4
  br label %172

112:                                              ; preds = %74
  br label %148

113:                                              ; preds = %63
  %114 = load ptr, ptr %6, align 8
  %115 = getelementptr inbounds %struct.lxb_html_token_attr, ptr %114, i32 0, i32 7
  %116 = load ptr, ptr %115, align 8
  store ptr %116, ptr %6, align 8
  %117 = load ptr, ptr %6, align 8
  %118 = icmp eq ptr %117, null
  br i1 %118, label %119, label %120

119:                                              ; preds = %113
  br label %160

120:                                              ; preds = %113
  %121 = load ptr, ptr %5, align 8
  %122 = getelementptr inbounds %struct.lxb_dom_document_type, ptr %121, i32 0, i32 3
  %123 = load ptr, ptr %7, align 8
  %124 = load ptr, ptr %6, align 8
  %125 = getelementptr inbounds %struct.lxb_html_token_attr, ptr %124, i32 0, i32 6
  %126 = load i64, ptr %125, align 8
  %127 = call ptr @lexbor_str_init(ptr noundef %122, ptr noundef %123, i64 noundef %126)
  %128 = load ptr, ptr %5, align 8
  %129 = getelementptr inbounds %struct.lxb_dom_document_type, ptr %128, i32 0, i32 3
  %130 = getelementptr inbounds %struct.lexbor_str_t, ptr %129, i32 0, i32 0
  %131 = load ptr, ptr %130, align 8
  %132 = icmp eq ptr %131, null
  br i1 %132, label %133, label %134

133:                                              ; preds = %120
  store i32 2, ptr %3, align 4
  br label %172

134:                                              ; preds = %120
  %135 = load ptr, ptr %5, align 8
  %136 = getelementptr inbounds %struct.lxb_dom_document_type, ptr %135, i32 0, i32 3
  %137 = load ptr, ptr %7, align 8
  %138 = load ptr, ptr %6, align 8
  %139 = getelementptr inbounds %struct.lxb_html_token_attr, ptr %138, i32 0, i32 5
  %140 = load ptr, ptr %139, align 8
  %141 = load ptr, ptr %6, align 8
  %142 = getelementptr inbounds %struct.lxb_html_token_attr, ptr %141, i32 0, i32 6
  %143 = load i64, ptr %142, align 8
  %144 = call ptr @lexbor_str_append(ptr noundef %136, ptr noundef %137, ptr noundef %140, i64 noundef %143)
  store i32 0, ptr %3, align 4
  br label %172

145:                                              ; preds = %18
  %146 = load ptr, ptr %5, align 8
  %147 = getelementptr inbounds %struct.lxb_dom_document_type, ptr %146, i32 0, i32 1
  store i64 0, ptr %147, align 8
  br label %148

148:                                              ; preds = %145, %112, %35
  %149 = load ptr, ptr %5, align 8
  %150 = getelementptr inbounds %struct.lxb_dom_document_type, ptr %149, i32 0, i32 2
  %151 = load ptr, ptr %7, align 8
  %152 = call ptr @lexbor_str_init(ptr noundef %150, ptr noundef %151, i64 noundef 0)
  %153 = load ptr, ptr %5, align 8
  %154 = getelementptr inbounds %struct.lxb_dom_document_type, ptr %153, i32 0, i32 2
  %155 = getelementptr inbounds %struct.lexbor_str_t, ptr %154, i32 0, i32 0
  %156 = load ptr, ptr %155, align 8
  %157 = icmp eq ptr %156, null
  br i1 %157, label %158, label %159

158:                                              ; preds = %148
  store i32 2, ptr %3, align 4
  br label %172

159:                                              ; preds = %148
  br label %160

160:                                              ; preds = %159, %119
  %161 = load ptr, ptr %5, align 8
  %162 = getelementptr inbounds %struct.lxb_dom_document_type, ptr %161, i32 0, i32 3
  %163 = load ptr, ptr %7, align 8
  %164 = call ptr @lexbor_str_init(ptr noundef %162, ptr noundef %163, i64 noundef 0)
  %165 = load ptr, ptr %5, align 8
  %166 = getelementptr inbounds %struct.lxb_dom_document_type, ptr %165, i32 0, i32 3
  %167 = getelementptr inbounds %struct.lexbor_str_t, ptr %166, i32 0, i32 0
  %168 = load ptr, ptr %167, align 8
  %169 = icmp eq ptr %168, null
  br i1 %169, label %170, label %171

170:                                              ; preds = %160
  store i32 2, ptr %3, align 4
  br label %172

171:                                              ; preds = %160
  store i32 0, ptr %3, align 4
  br label %172

172:                                              ; preds = %171, %170, %158, %134, %133, %101, %100, %94, %62, %56
  %173 = load i32, ptr %3, align 4
  ret i32 %173
}