; Function Attrs: nounwind uwtable
define hidden i32 @lxb_html_token_doctype_parse(ptr nocapture noundef readonly %0, ptr noundef %1) local_unnamed_addr #0 {
  %3 = getelementptr inbounds i8, ptr %1, i64 32
  %4 = load ptr, ptr %3, align 8
  %5 = getelementptr inbounds i8, ptr %4, i64 184
  %6 = load ptr, ptr %5, align 8
  %7 = getelementptr inbounds i8, ptr %0, i64 48
  %8 = load ptr, ptr %7, align 8
  %9 = icmp eq ptr %8, null
  br i1 %9, label %71, label %10

10:                                               ; preds = %2
  %11 = getelementptr inbounds i8, ptr %8, i64 32
  %12 = load ptr, ptr %11, align 8
  %13 = getelementptr inbounds i8, ptr %12, i64 40
  %14 = load i64, ptr %13, align 8
  %15 = getelementptr inbounds i8, ptr %1, i64 104
  store i64 %14, ptr %15, align 8
  %16 = getelementptr inbounds i8, ptr %8, i64 56
  %17 = load ptr, ptr %16, align 8
  %18 = icmp eq ptr %17, null
  br i1 %18, label %73, label %19

19:                                               ; preds = %10
  %20 = getelementptr inbounds i8, ptr %17, i64 32
  %21 = load ptr, ptr %20, align 8
  %22 = getelementptr inbounds i8, ptr %21, i64 40
  %23 = load i64, ptr %22, align 8
  switch i64 %23, label %73 [
    i64 23, label %24
    i64 32, label %43
  ]

24:                                               ; preds = %19
  %25 = getelementptr inbounds i8, ptr %1, i64 112
  %26 = getelementptr inbounds i8, ptr %17, i64 48
  %27 = load i64, ptr %26, align 8
  %28 = tail call ptr @lexbor_str_init(ptr noundef nonnull %25, ptr noundef %6, i64 noundef %27) #8
  %29 = load ptr, ptr %25, align 8
  %30 = icmp eq ptr %29, null
  br i1 %30, label %83, label %31

31:                                               ; preds = %24
  %32 = getelementptr inbounds i8, ptr %17, i64 16
  %33 = load ptr, ptr %32, align 8
  %34 = icmp eq ptr %33, null
  br i1 %34, label %83, label %35

35:                                               ; preds = %31
  %36 = getelementptr inbounds i8, ptr %17, i64 40
  %37 = load ptr, ptr %36, align 8
  %38 = load i64, ptr %26, align 8
  %39 = tail call ptr @lexbor_str_append(ptr noundef nonnull %25, ptr noundef %6, ptr noundef %37, i64 noundef %38) #8
  %40 = getelementptr inbounds i8, ptr %17, i64 56
  %41 = load ptr, ptr %40, align 8
  %42 = icmp eq ptr %41, null
  br i1 %42, label %78, label %59

43:                                               ; preds = %19
  %44 = getelementptr inbounds i8, ptr %1, i64 128
  %45 = getelementptr inbounds i8, ptr %17, i64 48
  %46 = load i64, ptr %45, align 8
  %47 = tail call ptr @lexbor_str_init(ptr noundef nonnull %44, ptr noundef %6, i64 noundef %46) #8
  %48 = load ptr, ptr %44, align 8
  %49 = icmp eq ptr %48, null
  br i1 %49, label %83, label %50

50:                                               ; preds = %43
  %51 = getelementptr inbounds i8, ptr %17, i64 16
  %52 = load ptr, ptr %51, align 8
  %53 = icmp eq ptr %52, null
  br i1 %53, label %83, label %54

54:                                               ; preds = %50
  %55 = getelementptr inbounds i8, ptr %17, i64 40
  %56 = load ptr, ptr %55, align 8
  %57 = load i64, ptr %45, align 8
  %58 = tail call ptr @lexbor_str_append(ptr noundef nonnull %44, ptr noundef %6, ptr noundef %56, i64 noundef %57) #8
  br label %83

59:                                               ; preds = %35
  %60 = getelementptr inbounds i8, ptr %1, i64 128
  %61 = getelementptr inbounds i8, ptr %41, i64 48
  %62 = load i64, ptr %61, align 8
  %63 = tail call ptr @lexbor_str_init(ptr noundef nonnull %60, ptr noundef %6, i64 noundef %62) #8
  %64 = load ptr, ptr %60, align 8
  %65 = icmp eq ptr %64, null
  br i1 %65, label %83, label %66

66:                                               ; preds = %59
  %67 = getelementptr inbounds i8, ptr %41, i64 40
  %68 = load ptr, ptr %67, align 8
  %69 = load i64, ptr %61, align 8
  %70 = tail call ptr @lexbor_str_append(ptr noundef nonnull %60, ptr noundef %6, ptr noundef %68, i64 noundef %69) #8
  br label %83

71:                                               ; preds = %2
  %72 = getelementptr inbounds i8, ptr %1, i64 104
  store i64 0, ptr %72, align 8
  br label %73

73:                                               ; preds = %19, %10, %71
  %74 = getelementptr inbounds i8, ptr %1, i64 112
  %75 = tail call ptr @lexbor_str_init(ptr noundef nonnull %74, ptr noundef %6, i64 noundef 0) #8
  %76 = load ptr, ptr %74, align 8
  %77 = icmp eq ptr %76, null
  br i1 %77, label %83, label %78

78:                                               ; preds = %73, %35
  %79 = getelementptr inbounds i8, ptr %1, i64 128
  %80 = tail call ptr @lexbor_str_init(ptr noundef nonnull %79, ptr noundef %6, i64 noundef 0) #8
  %81 = load ptr, ptr %79, align 8
  %82 = icmp eq ptr %81, null
  %. = select i1 %82, i32 2, i32 0
  br label %83

83:                                               ; preds = %78, %73, %59, %50, %43, %31, %24, %66, %54
  %.0 = phi i32 [ 0, %66 ], [ 0, %54 ], [ 2, %24 ], [ 0, %31 ], [ 2, %43 ], [ 0, %50 ], [ 2, %59 ], [ 2, %73 ], [ %., %78 ]
  ret i32 %.0
}